target datalayout = "e-m:e-p270:32:32-p271:32:32-p272:64:64-i64:64-i128:128-f80:128-n8:16:32:64-S128"
target triple = "x86_64-pc-linux-gnu"

%struct.AV1RawDecoderModelInfo = type { i8, i32, i8, i8 }

@.str.84 = private unnamed_addr constant [28 x i8] c"buffer_delay_length_minus_1\00", align 1
@.str.85 = private unnamed_addr constant [27 x i8] c"num_units_in_decoding_tick\00", align 1
@.str.86 = private unnamed_addr constant [35 x i8] c"buffer_removal_time_length_minus_1\00", align 1
@.str.87 = private unnamed_addr constant [39 x i8] c"frame_presentation_time_length_minus_1\00", align 1

; Function Attrs: nounwind uwtable
define internal i32 @cbs_av1_read_decoder_model_info(ptr noundef %0, ptr noundef %1, ptr noundef %2) #0 {
  %4 = alloca i32, align 4
  %5 = alloca ptr, align 8
  %6 = alloca ptr, align 8
  %7 = alloca ptr, align 8
  %8 = alloca i32, align 4
  %9 = alloca i32, align 4
  %10 = alloca i32, align 4
  %11 = alloca i32, align 4
  %12 = alloca i32, align 4
  %13 = alloca i32, align 4
  store ptr %0, ptr %5, align 8, !tbaa !4
  store ptr %1, ptr %6, align 8, !tbaa !103
  store ptr %2, ptr %7, align 8, !tbaa !199
  call void @llvm.lifetime.start.p0(i64 4, ptr %8) #8
  br label %14

14:                                               ; preds = %3
  call void @llvm.lifetime.start.p0(i64 4, ptr %9) #8
  br label %15

15:                                               ; preds = %14
  %16 = load ptr, ptr %5, align 8, !tbaa !4
  %17 = load ptr, ptr %6, align 8, !tbaa !103
  %18 = call i32 @ff_cbs_read_simple_unsigned(ptr noundef %16, ptr noundef %17, i32 noundef 5, ptr noundef @.str.84, ptr noundef %9)
  store i32 %18, ptr %8, align 4, !tbaa !11
  %19 = load i32, ptr %8, align 4, !tbaa !11
  %20 = icmp slt i32 %19, 0
  br i1 %20, label %21, label %23

21:                                               ; preds = %15
  %22 = load i32, ptr %8, align 4, !tbaa !11
  store i32 %22, ptr %4, align 4
  store i32 1, ptr %10, align 4
  br label %30

23:                                               ; preds = %15
  br label %24

24:                                               ; preds = %23
  br label %25

25:                                               ; preds = %24
  %26 = load i32, ptr %9, align 4, !tbaa !11
  %27 = trunc i32 %26 to i8
  %28 = load ptr, ptr %7, align 8, !tbaa !199
  %29 = getelementptr inbounds nuw %struct.AV1RawDecoderModelInfo, ptr %28, i32 0, i32 0
  store i8 %27, ptr %29, align 4, !tbaa !201
  store i32 0, ptr %10, align 4
  br label %30

30:                                               ; preds = %25, %21
  call void @llvm.lifetime.end.p0(i64 4, ptr %9) #8
  %31 = load i32, ptr %10, align 4
  switch i32 %31, label %97 [
    i32 0, label %32
  ]

32:                                               ; preds = %30
  br label %33

33:                                               ; preds = %32
  br label %34

34:                                               ; preds = %33
  br label %35

35:                                               ; preds = %34
  call void @llvm.lifetime.start.p0(i64 4, ptr %11) #8
  br label %36

36:                                               ; preds = %35
  %37 = load ptr, ptr %5, align 8, !tbaa !4
  %38 = load ptr, ptr %6, align 8, !tbaa !103
  %39 = call i32 @ff_cbs_read_unsigned(ptr noundef %37, ptr noundef %38, i32 noundef 32, ptr noundef @.str.85, ptr noundef null, ptr noundef %11, i32 noundef 1, i32 noundef -1)
  store i32 %39, ptr %8, align 4, !tbaa !11
  %40 = load i32, ptr %8, align 4, !tbaa !11
  %41 = icmp slt i32 %40, 0
  br i1 %41, label %42, label %44

42:                                               ; preds = %36
  %43 = load i32, ptr %8, align 4, !tbaa !11
  store i32 %43, ptr %4, align 4
  store i32 1, ptr %10, align 4
  br label %50

44:                                               ; preds = %36
  br label %45

45:                                               ; preds = %44
  br label %46

46:                                               ; preds = %45
  %47 = load i32, ptr %11, align 4, !tbaa !11
  %48 = load ptr, ptr %7, align 8, !tbaa !199
  %49 = getelementptr inbounds nuw %struct.AV1RawDecoderModelInfo, ptr %48, i32 0, i32 1
  store i32 %47, ptr %49, align 4, !tbaa !202
  store i32 0, ptr %10, align 4
  br label %50

50:                                               ; preds = %46, %42
  call void @llvm.lifetime.end.p0(i64 4, ptr %11) #8
  %51 = load i32, ptr %10, align 4
  switch i32 %51, label %97 [
    i32 0, label %52
  ]

52:                                               ; preds = %50
  br label %53

53:                                               ; preds = %52
  br label %54

54:                                               ; preds = %53
  br label %55

55:                                               ; preds = %54
  call void @llvm.lifetime.start.p0(i64 4, ptr %12) #8
  br label %56

56:                                               ; preds = %55
  %57 = load ptr, ptr %5, align 8, !tbaa !4
  %58 = load ptr, ptr %6, align 8, !tbaa !103
  %59 = call i32 @ff_cbs_read_simple_unsigned(ptr noundef %57, ptr noundef %58, i32 noundef 5, ptr noundef @.str.86, ptr noundef %12)
  store i32 %59, ptr %8, align 4, !tbaa !11
  %60 = load i32, ptr %8, align 4, !tbaa !11
  %61 = icmp slt i32 %60, 0
  br i1 %61, label %62, label %64

62:                                               ; preds = %56
  %63 = load i32, ptr %8, align 4, !tbaa !11
  store i32 %63, ptr %4, align 4
  store i32 1, ptr %10, align 4
  br label %71

64:                                               ; preds = %56
  br label %65

65:                                               ; preds = %64
  br label %66

66:                                               ; preds = %65
  %67 = load i32, ptr %12, align 4, !tbaa !11
  %68 = trunc i32 %67 to i8
  %69 = load ptr, ptr %7, align 8, !tbaa !199
  %70 = getelementptr inbounds nuw %struct.AV1RawDecoderModelInfo, ptr %69, i32 0, i32 2
  store i8 %68, ptr %70, align 4, !tbaa !203
  store i32 0, ptr %10, align 4
  br label %71

71:                                               ; preds = %66, %62
  call void @llvm.lifetime.end.p0(i64 4, ptr %12) #8
  %72 = load i32, ptr %10, align 4
  switch i32 %72, label %97 [
    i32 0, label %73
  ]

73:                                               ; preds = %71
  br label %74

74:                                               ; preds = %73
  br label %75

75:                                               ; preds = %74
  br label %76

76:                                               ; preds = %75
  call void @llvm.lifetime.start.p0(i64 4, ptr %13) #8
  br label %77

77:                                               ; preds = %76
  %78 = load ptr, ptr %5, align 8, !tbaa !4
  %79 = load ptr, ptr %6, align 8, !tbaa !103
  %80 = call i32 @ff_cbs_read_simple_unsigned(ptr noundef %78, ptr noundef %79, i32 noundef 5, ptr noundef @.str.87, ptr noundef %13)
  store i32 %80, ptr %8, align 4, !tbaa !11
  %81 = load i32, ptr %8, align 4, !tbaa !11
  %82 = icmp slt i32 %81, 0
  br i1 %82, label %83, label %85

83:                                               ; preds = %77
  %84 = load i32, ptr %8, align 4, !tbaa !11
  store i32 %84, ptr %4, align 4
  store i32 1, ptr %10, align 4
  br label %92

85:                                               ; preds = %77
  br label %86

86:                                               ; preds = %85
  br label %87

87:                                               ; preds = %86
  %88 = load i32, ptr %13, align 4, !tbaa !11
  %89 = trunc i32 %88 to i8
  %90 = load ptr, ptr %7, align 8, !tbaa !199
  %91 = getelementptr inbounds nuw %struct.AV1RawDecoderModelInfo, ptr %90, i32 0, i32 3
  store i8 %89, ptr %91, align 1, !tbaa !204
  store i32 0, ptr %10, align 4
  br label %92

92:                                               ; preds = %87, %83
  call void @llvm.lifetime.end.p0(i64 4, ptr %13) #8
  %93 = load i32, ptr %10, align 4
  switch i32 %93, label %97 [
    i32 0, label %94
  ]

94:                                               ; preds = %92
  br label %95

95:                                               ; preds = %94
  br label %96

96:                                               ; preds = %95
  store i32 0, ptr %4, align 4
  store i32 1, ptr %10, align 4
  br label %97

97:                                               ; preds = %96, %92, %71, %50, %30
  call void @llvm.lifetime.end.p0(i64 4, ptr %8) #8
  %98 = load i32, ptr %4, align 4
  ret i32 %98
}