; Function Attrs: nounwind uwtable
define internal fastcc range(i32 -2147483648, 1) i32 @cbs_av1_read_decoder_model_info(ptr noundef %0, ptr noundef nonnull %1, ptr noundef writeonly captures(none) %2) unnamed_addr #0 {
  %4 = alloca i32, align 4
  %5 = alloca i32, align 4
  %6 = alloca i32, align 4
  %7 = alloca i32, align 4
  call void @llvm.lifetime.start.p0(i64 4, ptr nonnull %4) #8
  %8 = call i32 @ff_cbs_read_simple_unsigned(ptr noundef %0, ptr noundef nonnull %1, i32 noundef 5, ptr noundef nonnull @.str.84, ptr noundef nonnull %4) #8
  %9 = icmp sgt i32 %8, -1
  br i1 %9, label %10, label %.critedge

10:                                               ; preds = %3
  %11 = load i32, ptr %4, align 4, !tbaa !69
  %12 = trunc i32 %11 to i8
  store i8 %12, ptr %2, align 4, !tbaa !298
  call void @llvm.lifetime.end.p0(i64 4, ptr nonnull %4) #8
  call void @llvm.lifetime.start.p0(i64 4, ptr nonnull %5) #8
  %13 = call i32 @ff_cbs_read_unsigned(ptr noundef %0, ptr noundef nonnull %1, i32 noundef 32, ptr noundef nonnull @.str.85, ptr noundef null, ptr noundef nonnull %5, i32 noundef 1, i32 noundef -1) #8
  %14 = icmp sgt i32 %13, -1
  br i1 %14, label %16, label %15

15:                                               ; preds = %10
  call void @llvm.lifetime.end.p0(i64 4, ptr nonnull %5) #8
  br label %33

16:                                               ; preds = %10
  %17 = load i32, ptr %5, align 4, !tbaa !69
  %18 = getelementptr inbounds nuw i8, ptr %2, i64 4
  store i32 %17, ptr %18, align 4, !tbaa !299
  call void @llvm.lifetime.end.p0(i64 4, ptr nonnull %5) #8
  call void @llvm.lifetime.start.p0(i64 4, ptr nonnull %6) #8
  %19 = call i32 @ff_cbs_read_simple_unsigned(ptr noundef %0, ptr noundef nonnull %1, i32 noundef 5, ptr noundef nonnull @.str.86, ptr noundef nonnull %6) #8
  %20 = icmp sgt i32 %19, -1
  br i1 %20, label %22, label %21

21:                                               ; preds = %16
  call void @llvm.lifetime.end.p0(i64 4, ptr nonnull %6) #8
  br label %33

22:                                               ; preds = %16
  %23 = load i32, ptr %6, align 4, !tbaa !69
  %24 = trunc i32 %23 to i8
  %25 = getelementptr inbounds nuw i8, ptr %2, i64 8
  store i8 %24, ptr %25, align 4, !tbaa !300
  call void @llvm.lifetime.end.p0(i64 4, ptr nonnull %6) #8
  call void @llvm.lifetime.start.p0(i64 4, ptr nonnull %7) #8
  %26 = call i32 @ff_cbs_read_simple_unsigned(ptr noundef %0, ptr noundef nonnull %1, i32 noundef 5, ptr noundef nonnull @.str.87, ptr noundef nonnull %7) #8
  %27 = icmp sgt i32 %26, -1
  br i1 %27, label %28, label %32

28:                                               ; preds = %22
  %29 = load i32, ptr %7, align 4, !tbaa !69
  %30 = trunc i32 %29 to i8
  %31 = getelementptr inbounds nuw i8, ptr %2, i64 9
  store i8 %30, ptr %31, align 1, !tbaa !301
  br label %32

32:                                               ; preds = %22, %28
  %spec.select = phi i32 [ 0, %28 ], [ %26, %22 ]
  call void @llvm.lifetime.end.p0(i64 4, ptr nonnull %7) #8
  br label %33

.critedge:                                        ; preds = %3
  call void @llvm.lifetime.end.p0(i64 4, ptr nonnull %4) #8
  br label %33

33:                                               ; preds = %21, %15, %32, %.critedge
  %.128 = phi i32 [ %19, %21 ], [ %13, %15 ], [ %8, %.critedge ], [ %spec.select, %32 ]
  ret i32 %.128
}